; Function Attrs: nounwind sspstrong uwtable
define internal void @uhci_attach(ptr noundef readonly captures(none) %port1) #0 {
if.end.i:
  %opaque = getelementptr inbounds nuw i8, ptr %port1, i64 40
  %0 = load ptr, ptr %opaque, align 8
  %ports = getelementptr inbounds nuw i8, ptr %0, i64 3128
  %index = getelementptr inbounds nuw i8, ptr %port1, i64 48
  %1 = load i32, ptr %index, align 8
  %idxprom = sext i32 %1 to i64
  %arrayidx = getelementptr [2 x %struct.UHCIPort], ptr %ports, i64 0, i64 %idxprom
  %ctrl = getelementptr inbounds nuw i8, ptr %arrayidx, i64 72
  %2 = load i16, ptr %ctrl, align 8
  %3 = or i16 %2, 3
  store i16 %3, ptr %ctrl, align 8
  %4 = load ptr, ptr %arrayidx, align 8
  %speed = getelementptr inbounds nuw i8, ptr %4, i64 216
  %5 = load i32, ptr %speed, align 8
  %cmp = icmp eq i32 %5, 0
  %6 = and i16 %3, -257
  %7 = or i16 %2, 259
  %storemerge = select i1 %cmp, i16 %7, i16 %6
  store i16 %storemerge, ptr %ctrl, align 8
  %cmd.i = getelementptr inbounds nuw i8, ptr %0, i64 3072
  %8 = load i16, ptr %cmd.i, align 16
  %9 = and i16 %8, 8
  %tobool1.not.i = icmp eq i16 %9, 0
  br i1 %tobool1.not.i, label %uhci_resume.exit, label %if.then2.i

if.then2.i:                                       ; preds = %if.end.i
  %or.i = or i16 %8, 16
  store i16 %or.i, ptr %cmd.i, align 16
  %status.i = getelementptr inbounds nuw i8, ptr %0, i64 3074
  %10 = load i16, ptr %status.i, align 2
  %11 = or i16 %10, 4
  store i16 %11, ptr %status.i, align 2
  %status2.i.i = getelementptr inbounds nuw i8, ptr %0, i64 3085
  %12 = load i8, ptr %status2.i.i, align 1
  %13 = and i8 %12, 1
  %tobool.not.i.i = icmp eq i8 %13, 0
  br i1 %tobool.not.i.i, label %lor.lhs.false.i.i, label %land.lhs.true.i.i

land.lhs.true.i.i:                                ; preds = %if.then2.i
  %intr.i.i = getelementptr inbounds nuw i8, ptr %0, i64 3076
  %14 = load i16, ptr %intr.i.i, align 4
  %15 = and i16 %14, 4
  %tobool3.not.i.i = icmp eq i16 %15, 0
  br i1 %tobool3.not.i.i, label %lor.lhs.false.i.i, label %if.then.i.i

lor.lhs.false.i.i:                                ; preds = %land.lhs.true.i.i, %if.then2.i
  %16 = and i8 %12, 2
  %tobool7.not.i.i = icmp eq i8 %16, 0
  %intr28.i.phi.trans.insert.i.phi.trans.insert = getelementptr inbounds nuw i8, ptr %0, i64 3076
  %.pre.i.pre = load i16, ptr %intr28.i.phi.trans.insert.i.phi.trans.insert, align 4
  %17 = and i16 %.pre.i.pre, 8
  %tobool12.not.i.i = icmp eq i16 %17, 0
  %or.cond = select i1 %tobool7.not.i.i, i1 true, i1 %tobool12.not.i.i
  br i1 %or.cond, label %lor.lhs.false13.i.i, label %if.then.i.i

lor.lhs.false13.i.i:                              ; preds = %lor.lhs.false.i.i
  %18 = and i16 %10, 2
  %tobool16.not.i.i = icmp eq i16 %18, 0
  %19 = and i16 %.pre.i.pre, 1
  %tobool21.not.i.i = icmp eq i16 %19, 0
  %or.cond.i = select i1 %tobool16.not.i.i, i1 true, i1 %tobool21.not.i.i
  br i1 %or.cond.i, label %land.lhs.true27.i.i, label %if.then.i.i

land.lhs.true27.i.i:                              ; preds = %lor.lhs.false13.i.i
  %20 = and i16 %.pre.i.pre, 2
  %21 = and i16 %10, 24
  %22 = or disjoint i16 %20, %21
  %or.cond11.i.i = icmp eq i16 %22, 0
  br i1 %or.cond11.i.i, label %uhci_update_irq.exit.i, label %if.then.i.i

if.then.i.i:                                      ; preds = %lor.lhs.false.i.i, %land.lhs.true27.i.i, %lor.lhs.false13.i.i, %land.lhs.true.i.i
  br label %uhci_update_irq.exit.i

uhci_update_irq.exit.i:                           ; preds = %if.then.i.i, %land.lhs.true27.i.i
  %level.0.i.i = phi i32 [ 1, %if.then.i.i ], [ 0, %land.lhs.true27.i.i ]
  %irq.i.i = getelementptr inbounds nuw i8, ptr %0, i64 3288
  %23 = load ptr, ptr %irq.i.i, align 8
  tail call void @qemu_set_irq(ptr noundef %23, i32 noundef %level.0.i.i) #11
  br label %uhci_resume.exit

uhci_resume.exit:                                 ; preds = %if.end.i, %uhci_update_irq.exit.i
  ret void
}